target datalayout = "e-m:e-p270:32:32-p271:32:32-p272:64:64-i64:64-i128:128-f80:128-n8:16:32:64-S128"
target triple = "x86_64-pc-linux-gnu"

%struct.H5CX_node_t = type { %struct.H5CX_t, ptr }
%struct.H5CX_t = type { i64, ptr, i64, ptr, i64, ptr, i64, ptr, i64, ptr, i64, ptr, i64, i32, i64, i8, ptr, i8, ptr, i8, i32, i8, [3 x double], i8, i64, i8, i32, i8, %struct.H5Z_cb_t, i8, ptr, i8, %struct.H5T_vlen_alloc_info_t, i8, %struct.H5T_conv_cb_t, i8, i32, i8, i8, i8, i32, i8, i8, i32, i8, i8, i32, i8, i32, i8, i64, i8, i8, i8, i8, i8, ptr, i8, ptr, i8, i32, i8, i32, i8, %struct.H5VL_connector_prop_t, i8, ptr, i8 }
%struct.H5Z_cb_t = type { ptr, ptr }
%struct.H5T_vlen_alloc_info_t = type { ptr, ptr, ptr, ptr }
%struct.H5T_conv_cb_t = type { ptr, ptr }
%struct.H5VL_connector_prop_t = type { ptr, ptr }
%struct.H5VL_optional_args_t = type { i32, ptr }
%union.H5VL_native_file_optional_args_t = type { %struct.H5VL_native_file_get_page_buffering_stats_t }
%struct.H5VL_native_file_get_page_buffering_stats_t = type { ptr, ptr, ptr, ptr, ptr }
%struct.H5VL_native_file_get_mdc_size_t = type { ptr, ptr, ptr, ptr }

@H5_libinit_g = external global i8, align 1
@H5_libterm_g = external global i8, align 1
@.str = private unnamed_addr constant [97 x i8] c"generated/home/dtcxzyw/WorkSpace/Projects/compilers/llvm-opt-benchmark/bench/hdf5/hdf5/src/H5F.c\00", align 1
@H5E_FUNC_g = external global i64, align 8
@H5E_CANTINIT_g = external global i64, align 8
@.str.1 = private unnamed_addr constant [30 x i8] c"library initialization failed\00", align 1
@H5F_init_g = external global i8, align 1
@.str.2 = private unnamed_addr constant [32 x i8] c"interface initialization failed\00", align 1
@H5E_CANTSET_g = external global i64, align 8
@.str.3 = private unnamed_addr constant [22 x i8] c"can't set API context\00", align 1
@H5E_ARGS_g = external global i64, align 8
@H5P_LST_DATASET_XFER_ID_g = external global i64, align 8
@H5E_FILE_g = external global i64, align 8
@H5E_CANTGET_g = external global i64, align 8
@H5E_BADVALUE_g = external global i64, align 8
@.str.45 = private unnamed_addr constant [14 x i8] c"not a file ID\00", align 1
@__func__.H5Fget_mdc_size = private unnamed_addr constant [16 x i8] c"H5Fget_mdc_size\00", align 1
@.str.90 = private unnamed_addr constant [23 x i8] c"unable to get MDC size\00", align 1

; Function Attrs: nounwind uwtable
define i32 @H5Fget_mdc_size(i64 noundef %0, ptr noundef %1, ptr noundef %2, ptr noundef %3, ptr noundef %4) #0 {
  %6 = alloca i64, align 8
  %7 = alloca ptr, align 8
  %8 = alloca ptr, align 8
  %9 = alloca ptr, align 8
  %10 = alloca ptr, align 8
  %11 = alloca ptr, align 8
  %12 = alloca %struct.H5VL_optional_args_t, align 8
  %13 = alloca %union.H5VL_native_file_optional_args_t, align 8
  %14 = alloca i32, align 4
  %15 = alloca i32, align 4
  %16 = alloca %struct.H5CX_node_t, align 8
  %17 = alloca i8, align 1
  %18 = alloca i8, align 1
  store i64 %0, ptr %6, align 8, !tbaa !3
  store ptr %1, ptr %7, align 8, !tbaa !23
  store ptr %2, ptr %8, align 8, !tbaa !23
  store ptr %3, ptr %9, align 8, !tbaa !23
  store ptr %4, ptr %10, align 8, !tbaa !49
  call void @llvm.lifetime.start.p0(i64 8, ptr %11) #5
  call void @llvm.lifetime.start.p0(i64 16, ptr %12) #5
  call void @llvm.lifetime.start.p0(i64 40, ptr %13) #5
  call void @llvm.lifetime.start.p0(i64 4, ptr %14) #5
  store i32 0, ptr %14, align 4, !tbaa !18
  call void @llvm.lifetime.start.p0(i64 4, ptr %15) #5
  store i32 0, ptr %15, align 4, !tbaa !18
  call void @llvm.lifetime.start.p0(i64 480, ptr %16) #5
  call void @llvm.memset.p0.i64(ptr align 8 %16, i8 0, i64 480, i1 false)
  call void @llvm.lifetime.start.p0(i64 1, ptr %17) #5
  store i8 0, ptr %17, align 1, !tbaa !7
  call void @llvm.lifetime.start.p0(i64 1, ptr %18) #5
  store i8 0, ptr %18, align 1, !tbaa !7
  br label %19

19:                                               ; preds = %5
  %20 = load i8, ptr @H5_libinit_g, align 1, !tbaa !7, !range !9, !noundef !10
  %21 = trunc i8 %20 to i1
  br i1 %21, label %26, label %22

22:                                               ; preds = %19
  %23 = load i8, ptr @H5_libterm_g, align 1, !tbaa !7, !range !9, !noundef !10
  %24 = trunc i8 %23 to i1
  %25 = xor i1 %24, true
  br label %26

26:                                               ; preds = %22, %19
  %27 = phi i1 [ false, %19 ], [ %25, %22 ]
  %28 = xor i1 %27, true
  %29 = xor i1 %28, true
  %30 = zext i1 %29 to i32
  %31 = sext i32 %30 to i64
  %32 = call i64 @llvm.expect.i64(i64 %31, i64 0)
  %33 = icmp ne i64 %32, 0
  br i1 %33, label %34, label %63

34:                                               ; preds = %26
  %35 = call i32 @H5_init_library()
  %36 = icmp slt i32 %35, 0
  %37 = xor i1 %36, true
  %38 = xor i1 %37, true
  %39 = zext i1 %38 to i32
  %40 = sext i32 %39 to i64
  %41 = call i64 @llvm.expect.i64(i64 %40, i64 0)
  %42 = icmp ne i64 %41, 0
  br i1 %42, label %43, label %62

43:                                               ; preds = %34
  br label %44

44:                                               ; preds = %43
  br label %45

45:                                               ; preds = %44
  br label %46

46:                                               ; preds = %45
  %47 = load i64, ptr @H5E_FUNC_g, align 8, !tbaa !3
  %48 = load i64, ptr @H5E_CANTINIT_g, align 8, !tbaa !3
  %49 = call i32 (ptr, ptr, i32, i64, i64, ptr, ...) @H5E_printf_stack(ptr noundef @.str, ptr noundef @__func__.H5Fget_mdc_size, i32 noundef 1904, i64 noundef %47, i64 noundef %48, ptr noundef @.str.1)
  br label %50

50:                                               ; preds = %46
  br label %51

51:                                               ; preds = %50
  store i8 1, ptr %18, align 1, !tbaa !7
  %52 = load i8, ptr %18, align 1, !tbaa !7, !range !9, !noundef !10
  %53 = trunc i8 %52 to i1
  %54 = zext i1 %53 to i8
  store i8 %54, ptr %18, align 1, !tbaa !7
  br label %55

55:                                               ; preds = %51
  br label %56

56:                                               ; preds = %55
  br label %57

57:                                               ; preds = %56
  store i32 -1, ptr %15, align 4, !tbaa !18
  br label %199

58:                                               ; No predecessors!
  br label %59

59:                                               ; preds = %58
  br label %60

60:                                               ; preds = %59
  br label %61

61:                                               ; preds = %60
  br label %62

62:                                               ; preds = %61, %34
  br label %63

63:                                               ; preds = %62, %26
  %64 = load i8, ptr @H5F_init_g, align 1, !tbaa !7, !range !9, !noundef !10
  %65 = trunc i8 %64 to i1
  br i1 %65, label %70, label %66

66:                                               ; preds = %63
  %67 = load i8, ptr @H5_libterm_g, align 1, !tbaa !7, !range !9, !noundef !10
  %68 = trunc i8 %67 to i1
  %69 = xor i1 %68, true
  br label %70

70:                                               ; preds = %66, %63
  %71 = phi i1 [ false, %63 ], [ %69, %66 ]
  %72 = xor i1 %71, true
  %73 = xor i1 %72, true
  %74 = zext i1 %73 to i32
  %75 = sext i32 %74 to i64
  %76 = call i64 @llvm.expect.i64(i64 %75, i64 0)
  %77 = icmp ne i64 %76, 0
  br i1 %77, label %78, label %101

78:                                               ; preds = %70
  store i8 1, ptr @H5F_init_g, align 1, !tbaa !7
  %79 = call i32 @H5F__init_package()
  %80 = icmp slt i32 %79, 0
  br i1 %80, label %81, label %100

81:                                               ; preds = %78
  store i8 0, ptr @H5F_init_g, align 1, !tbaa !7
  br label %82

82:                                               ; preds = %81
  br label %83

83:                                               ; preds = %82
  br label %84

84:                                               ; preds = %83
  %85 = load i64, ptr @H5E_FUNC_g, align 8, !tbaa !3
  %86 = load i64, ptr @H5E_CANTINIT_g, align 8, !tbaa !3
  %87 = call i32 (ptr, ptr, i32, i64, i64, ptr, ...) @H5E_printf_stack(ptr noundef @.str, ptr noundef @__func__.H5Fget_mdc_size, i32 noundef 1904, i64 noundef %85, i64 noundef %86, ptr noundef @.str.2)
  br label %88

88:                                               ; preds = %84
  br label %89

89:                                               ; preds = %88
  store i8 1, ptr %18, align 1, !tbaa !7
  %90 = load i8, ptr %18, align 1, !tbaa !7, !range !9, !noundef !10
  %91 = trunc i8 %90 to i1
  %92 = zext i1 %91 to i8
  store i8 %92, ptr %18, align 1, !tbaa !7
  br label %93

93:                                               ; preds = %89
  br label %94

94:                                               ; preds = %93
  br label %95

95:                                               ; preds = %94
  store i32 -1, ptr %15, align 4, !tbaa !18
  br label %199

96:                                               ; No predecessors!
  br label %97

97:                                               ; preds = %96
  br label %98

98:                                               ; preds = %97
  br label %99

99:                                               ; preds = %98
  br label %100

100:                                              ; preds = %99, %78
  br label %101

101:                                              ; preds = %100, %70
  br label %102

102:                                              ; preds = %101
  br label %103

103:                                              ; preds = %102
  br label %104

104:                                              ; preds = %103
  %105 = call i32 @H5CX_push(ptr noundef %16)
  %106 = icmp slt i32 %105, 0
  %107 = xor i1 %106, true
  %108 = xor i1 %107, true
  %109 = zext i1 %108 to i32
  %110 = sext i32 %109 to i64
  %111 = call i64 @llvm.expect.i64(i64 %110, i64 0)
  %112 = icmp ne i64 %111, 0
  br i1 %112, label %113, label %132

113:                                              ; preds = %104
  br label %114

114:                                              ; preds = %113
  br label %115

115:                                              ; preds = %114
  br label %116

116:                                              ; preds = %115
  %117 = load i64, ptr @H5E_FUNC_g, align 8, !tbaa !3
  %118 = load i64, ptr @H5E_CANTSET_g, align 8, !tbaa !3
  %119 = call i32 (ptr, ptr, i32, i64, i64, ptr, ...) @H5E_printf_stack(ptr noundef @.str, ptr noundef @__func__.H5Fget_mdc_size, i32 noundef 1904, i64 noundef %117, i64 noundef %118, ptr noundef @.str.3)
  br label %120

120:                                              ; preds = %116
  br label %121

121:                                              ; preds = %120
  store i8 1, ptr %18, align 1, !tbaa !7
  %122 = load i8, ptr %18, align 1, !tbaa !7, !range !9, !noundef !10
  %123 = trunc i8 %122 to i1
  %124 = zext i1 %123 to i8
  store i8 %124, ptr %18, align 1, !tbaa !7
  br label %125

125:                                              ; preds = %121
  br label %126

126:                                              ; preds = %125
  br label %127

127:                                              ; preds = %126
  store i32 -1, ptr %15, align 4, !tbaa !18
  br label %199

128:                                              ; No predecessors!
  br label %129

129:                                              ; preds = %128
  br label %130

130:                                              ; preds = %129
  br label %131

131:                                              ; preds = %130
  br label %133

132:                                              ; preds = %104
  store i8 1, ptr %17, align 1, !tbaa !7
  br label %133

133:                                              ; preds = %132, %131
  br label %134

134:                                              ; preds = %133
  br label %135

135:                                              ; preds = %134
  %136 = call i32 @H5E_clear_stack()
  %137 = load i64, ptr %6, align 8, !tbaa !3
  %138 = call ptr @H5VL_vol_object_verify(i64 noundef %137, i32 noundef 1)
  store ptr %138, ptr %11, align 8, !tbaa !11
  %139 = icmp eq ptr null, %138
  br i1 %139, label %140, label %159

140:                                              ; preds = %135
  br label %141

141:                                              ; preds = %140
  br label %142

142:                                              ; preds = %141
  br label %143

143:                                              ; preds = %142
  %144 = load i64, ptr @H5E_ARGS_g, align 8, !tbaa !3
  %145 = load i64, ptr @H5E_BADVALUE_g, align 8, !tbaa !3
  %146 = call i32 (ptr, ptr, i32, i64, i64, ptr, ...) @H5E_printf_stack(ptr noundef @.str, ptr noundef @__func__.H5Fget_mdc_size, i32 noundef 1908, i64 noundef %144, i64 noundef %145, ptr noundef @.str.45)
  br label %147

147:                                              ; preds = %143
  br label %148

148:                                              ; preds = %147
  store i8 1, ptr %18, align 1, !tbaa !7
  %149 = load i8, ptr %18, align 1, !tbaa !7, !range !9, !noundef !10
  %150 = trunc i8 %149 to i1
  %151 = zext i1 %150 to i8
  store i8 %151, ptr %18, align 1, !tbaa !7
  br label %152

152:                                              ; preds = %148
  br label %153

153:                                              ; preds = %152
  br label %154

154:                                              ; preds = %153
  store i32 -1, ptr %15, align 4, !tbaa !18
  br label %199

155:                                              ; No predecessors!
  br label %156

156:                                              ; preds = %155
  br label %157

157:                                              ; preds = %156
  br label %158

158:                                              ; preds = %157
  br label %159

159:                                              ; preds = %158, %135
  %160 = load ptr, ptr %7, align 8, !tbaa !23
  %161 = getelementptr inbounds nuw %struct.H5VL_native_file_get_mdc_size_t, ptr %13, i32 0, i32 0
  store ptr %160, ptr %161, align 8, !tbaa !17
  %162 = load ptr, ptr %8, align 8, !tbaa !23
  %163 = getelementptr inbounds nuw %struct.H5VL_native_file_get_mdc_size_t, ptr %13, i32 0, i32 1
  store ptr %162, ptr %163, align 8, !tbaa !17
  %164 = load ptr, ptr %9, align 8, !tbaa !23
  %165 = getelementptr inbounds nuw %struct.H5VL_native_file_get_mdc_size_t, ptr %13, i32 0, i32 2
  store ptr %164, ptr %165, align 8, !tbaa !17
  %166 = getelementptr inbounds nuw %struct.H5VL_native_file_get_mdc_size_t, ptr %13, i32 0, i32 3
  store ptr %14, ptr %166, align 8, !tbaa !17
  %167 = getelementptr inbounds nuw %struct.H5VL_optional_args_t, ptr %12, i32 0, i32 0
  store i32 7, ptr %167, align 8, !tbaa !29
  %168 = getelementptr inbounds nuw %struct.H5VL_optional_args_t, ptr %12, i32 0, i32 1
  store ptr %13, ptr %168, align 8, !tbaa !31
  %169 = load ptr, ptr %11, align 8, !tbaa !11
  %170 = load i64, ptr @H5P_LST_DATASET_XFER_ID_g, align 8, !tbaa !3
  %171 = call i32 @H5VL_file_optional(ptr noundef %169, ptr noundef %12, i64 noundef %170, ptr noundef null)
  %172 = icmp slt i32 %171, 0
  br i1 %172, label %173, label %192

173:                                              ; preds = %159
  br label %174

174:                                              ; preds = %173
  br label %175

175:                                              ; preds = %174
  br label %176

176:                                              ; preds = %175
  %177 = load i64, ptr @H5E_FILE_g, align 8, !tbaa !3
  %178 = load i64, ptr @H5E_CANTGET_g, align 8, !tbaa !3
  %179 = call i32 (ptr, ptr, i32, i64, i64, ptr, ...) @H5E_printf_stack(ptr noundef @.str, ptr noundef @__func__.H5Fget_mdc_size, i32 noundef 1920, i64 noundef %177, i64 noundef %178, ptr noundef @.str.90)
  br label %180

180:                                              ; preds = %176
  br label %181

181:                                              ; preds = %180
  store i8 1, ptr %18, align 1, !tbaa !7
  %182 = load i8, ptr %18, align 1, !tbaa !7, !range !9, !noundef !10
  %183 = trunc i8 %182 to i1
  %184 = zext i1 %183 to i8
  store i8 %184, ptr %18, align 1, !tbaa !7
  br label %185

185:                                              ; preds = %181
  br label %186

186:                                              ; preds = %185
  br label %187

187:                                              ; preds = %186
  store i32 -1, ptr %15, align 4, !tbaa !18
  br label %199

188:                                              ; No predecessors!
  br label %189

189:                                              ; preds = %188
  br label %190

190:                                              ; preds = %189
  br label %191

191:                                              ; preds = %190
  br label %192

192:                                              ; preds = %191, %159
  %193 = load ptr, ptr %10, align 8, !tbaa !49
  %194 = icmp ne ptr %193, null
  br i1 %194, label %195, label %198

195:                                              ; preds = %192
  %196 = load i32, ptr %14, align 4, !tbaa !18
  %197 = load ptr, ptr %10, align 8, !tbaa !49
  store i32 %196, ptr %197, align 4, !tbaa !18
  br label %198

198:                                              ; preds = %195, %192
  br label %199

199:                                              ; preds = %198, %187, %154, %127, %95, %57
  %200 = load i8, ptr %17, align 1, !tbaa !7, !range !9, !noundef !10
  %201 = trunc i8 %200 to i1
  %202 = xor i1 %201, true
  %203 = xor i1 %202, true
  %204 = zext i1 %203 to i32
  %205 = sext i32 %204 to i64
  %206 = call i64 @llvm.expect.i64(i64 %205, i64 1)
  %207 = icmp ne i64 %206, 0
  br i1 %207, label %208, label %210

208:                                              ; preds = %199
  %209 = call i32 @H5CX_pop(i1 noundef zeroext true)
  store i8 0, ptr %17, align 1, !tbaa !7
  br label %210

210:                                              ; preds = %208, %199
  %211 = load i8, ptr %18, align 1, !tbaa !7, !range !9, !noundef !10
  %212 = trunc i8 %211 to i1
  %213 = xor i1 %212, true
  %214 = xor i1 %213, true
  %215 = zext i1 %214 to i32
  %216 = sext i32 %215 to i64
  %217 = call i64 @llvm.expect.i64(i64 %216, i64 0)
  %218 = icmp ne i64 %217, 0
  br i1 %218, label %219, label %221

219:                                              ; preds = %210
  %220 = call i32 @H5E_dump_api_stack()
  br label %221

221:                                              ; preds = %219, %210
  %222 = load i32, ptr %15, align 4, !tbaa !18
  call void @llvm.lifetime.end.p0(i64 1, ptr %18) #5
  call void @llvm.lifetime.end.p0(i64 1, ptr %17) #5
  call void @llvm.lifetime.end.p0(i64 480, ptr %16) #5
  call void @llvm.lifetime.end.p0(i64 4, ptr %15) #5
  call void @llvm.lifetime.end.p0(i64 4, ptr %14) #5
  call void @llvm.lifetime.end.p0(i64 40, ptr %13) #5
  call void @llvm.lifetime.end.p0(i64 16, ptr %12) #5
  call void @llvm.lifetime.end.p0(i64 8, ptr %11) #5
  ret i32 %222
}