; Function Attrs: nounwind uwtable
define range(i32 -1, 1) i32 @H5Fget_mdc_size(i64 noundef %0, ptr noundef %1, ptr noundef %2, ptr noundef %3, ptr noundef writeonly captures(address_is_null) %4) local_unnamed_addr #0 {
  %6 = alloca %struct.H5VL_optional_args_t, align 8
  %7 = alloca %union.H5VL_native_file_optional_args_t, align 8
  %8 = alloca i32, align 4
  %9 = alloca %struct.H5CX_node_t, align 8
  call void @llvm.lifetime.start.p0(i64 16, ptr nonnull %6) #6
  call void @llvm.lifetime.start.p0(i64 40, ptr nonnull %7) #6
  call void @llvm.lifetime.start.p0(i64 4, ptr nonnull %8) #6
  store i32 0, ptr %8, align 4, !tbaa !52
  call void @llvm.lifetime.start.p0(i64 480, ptr nonnull %9) #6
  call void @llvm.memset.p0.i64(ptr noundef nonnull align 8 dereferenceable(480) %9, i8 0, i64 480, i1 false)
  %10 = load i8, ptr @H5_libinit_g, align 1, !tbaa !3, !range !7, !noundef !8
  %11 = trunc nuw i8 %10 to i1
  %12 = load i8, ptr @H5_libterm_g, align 1, !range !7
  %13 = trunc nuw i8 %12 to i1
  %14 = select i1 %11, i1 true, i1 %13
  br i1 %14, label %22, label %15, !prof !9

15:                                               ; preds = %5
  %16 = tail call i32 @H5_init_library() #6
  %17 = icmp slt i32 %16, 0
  br i1 %17, label %18, label %._crit_edge, !prof !10

._crit_edge:                                      ; preds = %15
  %.pre = load i8, ptr @H5_libterm_g, align 1, !range !7
  br label %22

18:                                               ; preds = %15
  %19 = load i64, ptr @H5E_FUNC_g, align 8, !tbaa !11
  %20 = load i64, ptr @H5E_CANTINIT_g, align 8, !tbaa !11
  %21 = tail call i32 (ptr, ptr, i32, i64, i64, ptr, ...) @H5E_printf_stack(ptr noundef nonnull @.str, ptr noundef nonnull @__func__.H5Fget_mdc_size, i32 noundef 1904, i64 noundef %19, i64 noundef %20, ptr noundef nonnull @.str.1) #6
  br label %.thread26

22:                                               ; preds = %._crit_edge, %5
  %23 = phi i8 [ %.pre, %._crit_edge ], [ %12, %5 ]
  %24 = load i8, ptr @H5F_init_g, align 1, !tbaa !3, !range !7, !noundef !8
  %25 = trunc nuw i8 %24 to i1
  %26 = trunc nuw i8 %23 to i1
  %27 = select i1 %25, i1 true, i1 %26
  br i1 %27, label %35, label %28, !prof !9

28:                                               ; preds = %22
  store i8 1, ptr @H5F_init_g, align 1, !tbaa !3
  %29 = tail call i32 @H5F__init_package() #6
  %30 = icmp slt i32 %29, 0
  br i1 %30, label %31, label %35, !prof !13

31:                                               ; preds = %28
  store i8 0, ptr @H5F_init_g, align 1, !tbaa !3
  %32 = load i64, ptr @H5E_FUNC_g, align 8, !tbaa !11
  %33 = load i64, ptr @H5E_CANTINIT_g, align 8, !tbaa !11
  %34 = tail call i32 (ptr, ptr, i32, i64, i64, ptr, ...) @H5E_printf_stack(ptr noundef nonnull @.str, ptr noundef nonnull @__func__.H5Fget_mdc_size, i32 noundef 1904, i64 noundef %32, i64 noundef %33, ptr noundef nonnull @.str.2) #6
  br label %.thread26

35:                                               ; preds = %22, %28
  %36 = call i32 @H5CX_push(ptr noundef nonnull %9) #6
  %37 = icmp slt i32 %36, 0
  br i1 %37, label %38, label %42, !prof !10

38:                                               ; preds = %35
  %39 = load i64, ptr @H5E_FUNC_g, align 8, !tbaa !11
  %40 = load i64, ptr @H5E_CANTSET_g, align 8, !tbaa !11
  %41 = call i32 (ptr, ptr, i32, i64, i64, ptr, ...) @H5E_printf_stack(ptr noundef nonnull @.str, ptr noundef nonnull @__func__.H5Fget_mdc_size, i32 noundef 1904, i64 noundef %39, i64 noundef %40, ptr noundef nonnull @.str.3) #6
  br label %.thread26

42:                                               ; preds = %35
  %43 = call i32 @H5E_clear_stack() #6
  %44 = call ptr @H5VL_vol_object_verify(i64 noundef %0, i32 noundef 1) #6
  %45 = icmp eq ptr %44, null
  br i1 %45, label %46, label %50, !prof !14

46:                                               ; preds = %42
  %47 = load i64, ptr @H5E_ARGS_g, align 8, !tbaa !11
  %48 = load i64, ptr @H5E_BADVALUE_g, align 8, !tbaa !11
  %49 = call i32 (ptr, ptr, i32, i64, i64, ptr, ...) @H5E_printf_stack(ptr noundef nonnull @.str, ptr noundef nonnull @__func__.H5Fget_mdc_size, i32 noundef 1908, i64 noundef %47, i64 noundef %48, ptr noundef nonnull @.str.45) #6
  br label %.thread32

50:                                               ; preds = %42
  store ptr %1, ptr %7, align 8, !tbaa !18
  %51 = getelementptr inbounds nuw i8, ptr %7, i64 8
  store ptr %2, ptr %51, align 8, !tbaa !18
  %52 = getelementptr inbounds nuw i8, ptr %7, i64 16
  store ptr %3, ptr %52, align 8, !tbaa !18
  %53 = getelementptr inbounds nuw i8, ptr %7, i64 24
  store ptr %8, ptr %53, align 8, !tbaa !18
  store i32 7, ptr %6, align 8, !tbaa !28
  %54 = getelementptr inbounds nuw i8, ptr %6, i64 8
  store ptr %7, ptr %54, align 8, !tbaa !30
  %55 = load i64, ptr @H5P_LST_DATASET_XFER_ID_g, align 8, !tbaa !11
  %56 = call i32 @H5VL_file_optional(ptr noundef nonnull %44, ptr noundef nonnull %6, i64 noundef %55, ptr noundef null) #6
  %57 = icmp slt i32 %56, 0
  br i1 %57, label %58, label %62, !prof !14

58:                                               ; preds = %50
  %59 = load i64, ptr @H5E_FILE_g, align 8, !tbaa !11
  %60 = load i64, ptr @H5E_CANTGET_g, align 8, !tbaa !11
  %61 = call i32 (ptr, ptr, i32, i64, i64, ptr, ...) @H5E_printf_stack(ptr noundef nonnull @.str, ptr noundef nonnull @__func__.H5Fget_mdc_size, i32 noundef 1920, i64 noundef %59, i64 noundef %60, ptr noundef nonnull @.str.90) #6
  br label %.thread32

62:                                               ; preds = %50
  %.not = icmp eq ptr %4, null
  br i1 %.not, label %66, label %63

63:                                               ; preds = %62
  %64 = load i32, ptr %8, align 4, !tbaa !52
  store i32 %64, ptr %4, align 4, !tbaa !52
  br label %66

.thread32:                                        ; preds = %58, %46
  %65 = call i32 @H5CX_pop(i1 noundef zeroext true) #6
  br label %.thread26

66:                                               ; preds = %62, %63
  %67 = call i32 @H5CX_pop(i1 noundef zeroext true) #6
  br label %69

.thread26:                                        ; preds = %38, %31, %18, %.thread32
  %68 = call i32 @H5E_dump_api_stack() #6
  br label %69

69:                                               ; preds = %66, %.thread26
  %.0152129 = phi i32 [ -1, %.thread26 ], [ 0, %66 ]
  call void @llvm.lifetime.end.p0(i64 480, ptr nonnull %9) #6
  call void @llvm.lifetime.end.p0(i64 4, ptr nonnull %8) #6
  call void @llvm.lifetime.end.p0(i64 40, ptr nonnull %7) #6
  call void @llvm.lifetime.end.p0(i64 16, ptr nonnull %6) #6
  ret i32 %.0152129
}